target datalayout = "e-m:e-p270:32:32-p271:32:32-p272:64:64-i64:64-i128:128-f80:128-n8:16:32:64-S128"
target triple = "x86_64-pc-linux-gnu"

%"class.llvm::MCInstrInfo" = type <{ ptr, ptr, ptr, ptr, ptr, i32, [4 x i8] }>
%"class.llvm::MCInst" = type { i32, i32, %"class.llvm::SMLoc", %"class.llvm::SmallVector" }
%"class.llvm::SMLoc" = type { ptr }
%"class.llvm::SmallVector" = type { %"class.llvm::SmallVectorImpl", %"struct.llvm::SmallVectorStorage" }
%"class.llvm::SmallVectorImpl" = type { %"class.llvm::SmallVectorTemplateBase" }
%"class.llvm::SmallVectorTemplateBase" = type { %"class.llvm::SmallVectorTemplateCommon" }
%"class.llvm::SmallVectorTemplateCommon" = type { %"class.llvm::SmallVectorBase" }
%"class.llvm::SmallVectorBase" = type { ptr, i32, i32 }
%"struct.llvm::SmallVectorStorage" = type { [96 x i8] }
%"class.llvm::MCSubtargetInfo" = type { ptr, %"class.llvm::Triple", %"class.std::__cxx11::basic_string", %"class.std::__cxx11::basic_string", %"class.llvm::ArrayRef", %"class.llvm::ArrayRef.0", ptr, ptr, ptr, ptr, ptr, ptr, ptr, %"class.llvm::FeatureBitset", %"class.std::__cxx11::basic_string" }
%"class.llvm::Triple" = type { %"class.std::__cxx11::basic_string", i32, i32, i32, i32, i32, i32 }
%"class.llvm::ArrayRef" = type { ptr, i64 }
%"class.llvm::ArrayRef.0" = type { ptr, i64 }
%"class.llvm::FeatureBitset" = type { %"struct.std::array" }
%"struct.std::array" = type { [5 x i64] }
%"class.std::__cxx11::basic_string" = type { %"struct.std::__cxx11::basic_string<char>::_Alloc_hider", i64, %union.anon }
%"struct.std::__cxx11::basic_string<char>::_Alloc_hider" = type { ptr }
%union.anon = type { i64, [8 x i8] }

$_ZNK4llvm6MCInst9getOpcodeEv = comdat any

$_ZNK4llvm15MCSubtargetInfo14getFeatureBitsEv = comdat any

$_ZNK4llvm13FeatureBitsetixEj = comdat any

$_ZNKSt5arrayImLm5EEixEm = comdat any

$_ZNSt14__array_traitsImLm5EE6_S_refERA5_Kmm = comdat any

@_ZN4llvm24DisableABIBreakingChecksE = external global i32, align 4
@_ZN4llvm30VerifyDisableABIBreakingChecksE = weak hidden global ptr @_ZN4llvm24DisableABIBreakingChecksE, align 8
@.str = private unnamed_addr constant [11 x i8] c"deprecated\00", align 1

; Function Attrs: mustprogress nounwind uwtable
define dso_local noundef zeroext i1 @_ZNK4llvm11MCInstrInfo17getDeprecatedInfoERNS_6MCInstERKNS_15MCSubtargetInfoERNSt7__cxx1112basic_stringIcSt11char_traitsIcESaIcEEE(ptr noundef nonnull align 8 dereferenceable(44) %0, ptr noundef nonnull align 8 dereferenceable(128) %1, ptr noundef nonnull align 8 dereferenceable(288) %2, ptr noundef nonnull align 8 dereferenceable(32) %3) #0 align 2 {
  %5 = alloca i1, align 1
  %6 = alloca ptr, align 8
  %7 = alloca ptr, align 8
  %8 = alloca ptr, align 8
  %9 = alloca ptr, align 8
  %10 = alloca i32, align 4
  store ptr %0, ptr %6, align 8
  store ptr %1, ptr %7, align 8
  store ptr %2, ptr %8, align 8
  store ptr %3, ptr %9, align 8
  %11 = load ptr, ptr %6, align 8
  %12 = load ptr, ptr %7, align 8
  %13 = call noundef i32 @_ZNK4llvm6MCInst9getOpcodeEv(ptr noundef nonnull align 8 dereferenceable(128) %12)
  store i32 %13, ptr %10, align 4
  %14 = getelementptr inbounds nuw %"class.llvm::MCInstrInfo", ptr %11, i32 0, i32 4
  %15 = load ptr, ptr %14, align 8
  %16 = icmp ne ptr %15, null
  br i1 %16, label %17, label %36

17:                                               ; preds = %4
  %18 = getelementptr inbounds nuw %"class.llvm::MCInstrInfo", ptr %11, i32 0, i32 4
  %19 = load ptr, ptr %18, align 8
  %20 = load i32, ptr %10, align 4
  %21 = zext i32 %20 to i64
  %22 = getelementptr inbounds ptr, ptr %19, i64 %21
  %23 = load ptr, ptr %22, align 8
  %24 = icmp ne ptr %23, null
  br i1 %24, label %25, label %36

25:                                               ; preds = %17
  %26 = getelementptr inbounds nuw %"class.llvm::MCInstrInfo", ptr %11, i32 0, i32 4
  %27 = load ptr, ptr %26, align 8
  %28 = load i32, ptr %10, align 4
  %29 = zext i32 %28 to i64
  %30 = getelementptr inbounds ptr, ptr %27, i64 %29
  %31 = load ptr, ptr %30, align 8
  %32 = load ptr, ptr %7, align 8
  %33 = load ptr, ptr %8, align 8
  %34 = load ptr, ptr %9, align 8
  %35 = call noundef zeroext i1 %31(ptr noundef nonnull align 8 dereferenceable(128) %32, ptr noundef nonnull align 8 dereferenceable(288) %33, ptr noundef nonnull align 8 dereferenceable(32) %34)
  store i1 %35, ptr %5, align 1
  br label %64

36:                                               ; preds = %17, %4
  %37 = getelementptr inbounds nuw %"class.llvm::MCInstrInfo", ptr %11, i32 0, i32 3
  %38 = load ptr, ptr %37, align 8
  %39 = icmp ne ptr %38, null
  br i1 %39, label %40, label %63

40:                                               ; preds = %36
  %41 = getelementptr inbounds nuw %"class.llvm::MCInstrInfo", ptr %11, i32 0, i32 3
  %42 = load ptr, ptr %41, align 8
  %43 = load i32, ptr %10, align 4
  %44 = zext i32 %43 to i64
  %45 = getelementptr inbounds i8, ptr %42, i64 %44
  %46 = load i8, ptr %45, align 1
  %47 = zext i8 %46 to i32
  %48 = icmp ne i32 %47, 255
  br i1 %48, label %49, label %63

49:                                               ; preds = %40
  %50 = load ptr, ptr %8, align 8
  %51 = call noundef nonnull align 8 dereferenceable(40) ptr @_ZNK4llvm15MCSubtargetInfo14getFeatureBitsEv(ptr noundef nonnull align 8 dereferenceable(288) %50)
  %52 = getelementptr inbounds nuw %"class.llvm::MCInstrInfo", ptr %11, i32 0, i32 3
  %53 = load ptr, ptr %52, align 8
  %54 = load i32, ptr %10, align 4
  %55 = zext i32 %54 to i64
  %56 = getelementptr inbounds i8, ptr %53, i64 %55
  %57 = load i8, ptr %56, align 1
  %58 = zext i8 %57 to i32
  %59 = call noundef zeroext i1 @_ZNK4llvm13FeatureBitsetixEj(ptr noundef nonnull align 8 dereferenceable(40) %51, i32 noundef %58)
  br i1 %59, label %60, label %63

60:                                               ; preds = %49
  %61 = load ptr, ptr %9, align 8
  %62 = call noundef nonnull align 8 dereferenceable(32) ptr @_ZNSt7__cxx1112basic_stringIcSt11char_traitsIcESaIcEEaSEPKc(ptr noundef nonnull align 8 dereferenceable(32) %61, ptr noundef @.str)
  store i1 true, ptr %5, align 1
  br label %64

63:                                               ; preds = %49, %40, %36
  store i1 false, ptr %5, align 1
  br label %64

64:                                               ; preds = %63, %60, %25
  %65 = load i1, ptr %5, align 1
  ret i1 %65
}

; Function Attrs: mustprogress nounwind uwtable
define linkonce_odr hidden noundef i32 @_ZNK4llvm6MCInst9getOpcodeEv(ptr noundef nonnull align 8 dereferenceable(128) %0) #0 comdat align 2 {
  %2 = alloca ptr, align 8
  store ptr %0, ptr %2, align 8
  %3 = load ptr, ptr %2, align 8
  %4 = getelementptr inbounds nuw %"class.llvm::MCInst", ptr %3, i32 0, i32 0
  %5 = load i32, ptr %4, align 8
  ret i32 %5
}

; Function Attrs: mustprogress nounwind uwtable
define linkonce_odr hidden noundef nonnull align 8 dereferenceable(40) ptr @_ZNK4llvm15MCSubtargetInfo14getFeatureBitsEv(ptr noundef nonnull align 8 dereferenceable(288) %0) #0 comdat align 2 {
  %2 = alloca ptr, align 8
  store ptr %0, ptr %2, align 8
  %3 = load ptr, ptr %2, align 8
  %4 = getelementptr inbounds nuw %"class.llvm::MCSubtargetInfo", ptr %3, i32 0, i32 13
  ret ptr %4
}

; Function Attrs: mustprogress nounwind uwtable
define linkonce_odr hidden noundef zeroext i1 @_ZNK4llvm13FeatureBitsetixEj(ptr noundef nonnull align 8 dereferenceable(40) %0, i32 noundef %1) #0 comdat align 2 {
  %3 = alloca ptr, align 8
  %4 = alloca i32, align 4
  %5 = alloca i64, align 8
  store ptr %0, ptr %3, align 8
  store i32 %1, ptr %4, align 4
  %6 = load ptr, ptr %3, align 8
  %7 = load i32, ptr %4, align 4
  %8 = urem i32 %7, 64
  %9 = zext i32 %8 to i64
  %10 = shl i64 1, %9
  store i64 %10, ptr %5, align 8
  %11 = getelementptr inbounds nuw %"class.llvm::FeatureBitset", ptr %6, i32 0, i32 0
  %12 = load i32, ptr %4, align 4
  %13 = udiv i32 %12, 64
  %14 = zext i32 %13 to i64
  %15 = call noundef nonnull align 8 dereferenceable(8) ptr @_ZNKSt5arrayImLm5EEixEm(ptr noundef nonnull align 8 dereferenceable(40) %11, i64 noundef %14) #2
  %16 = load i64, ptr %15, align 8
  %17 = load i64, ptr %5, align 8
  %18 = and i64 %16, %17
  %19 = icmp ne i64 %18, 0
  ret i1 %19
}

declare noundef nonnull align 8 dereferenceable(32) ptr @_ZNSt7__cxx1112basic_stringIcSt11char_traitsIcESaIcEEaSEPKc(ptr noundef nonnull align 8 dereferenceable(32), ptr noundef) #1

; Function Attrs: mustprogress nounwind uwtable
define linkonce_odr hidden noundef nonnull align 8 dereferenceable(8) ptr @_ZNKSt5arrayImLm5EEixEm(ptr noundef nonnull align 8 dereferenceable(40) %0, i64 noundef %1) #0 comdat align 2 {
  %3 = alloca ptr, align 8
  %4 = alloca i64, align 8
  store ptr %0, ptr %3, align 8
  store i64 %1, ptr %4, align 8
  %5 = load ptr, ptr %3, align 8
  %6 = getelementptr inbounds nuw %"struct.std::array", ptr %5, i32 0, i32 0
  %7 = load i64, ptr %4, align 8
  %8 = call noundef nonnull align 8 dereferenceable(8) ptr @_ZNSt14__array_traitsImLm5EE6_S_refERA5_Kmm(ptr noundef nonnull align 8 dereferenceable(40) %6, i64 noundef %7) #2
  ret ptr %8
}

; Function Attrs: mustprogress nounwind uwtable
define linkonce_odr hidden noundef nonnull align 8 dereferenceable(8) ptr @_ZNSt14__array_traitsImLm5EE6_S_refERA5_Kmm(ptr noundef nonnull align 8 dereferenceable(40) %0, i64 noundef %1) #0 comdat align 2 {
  %3 = alloca ptr, align 8
  %4 = alloca i64, align 8
  store ptr %0, ptr %3, align 8
  store i64 %1, ptr %4, align 8
  %5 = load ptr, ptr %3, align 8
  %6 = load i64, ptr %4, align 8
  %7 = getelementptr inbounds [5 x i64], ptr %5, i64 0, i64 %6
  ret ptr %7
}


!llvm.module.flags = !{!0, !1, !2, !3}

!0 = !{i32 1, !"wchar_size", i32 4}
!1 = !{i32 8, !"PIC Level", i32 2}
!2 = !{i32 7, !"uwtable", i32 2}
!3 = !{i32 7, !"frame-pointer", i32 2}
