; ModuleID = 'bench/llvm/original/MCInstrInfo.cpp.ll'
source_filename = "bench/llvm/original/MCInstrInfo.cpp.ll"
target datalayout = "e-m:e-p270:32:32-p271:32:32-p272:64:64-i64:64-i128:128-f80:128-n8:16:32:64-S128"
target triple = "x86_64-pc-linux-gnu"

@_ZN4llvm24DisableABIBreakingChecksE = external global i32, align 4
@_ZN4llvm30VerifyDisableABIBreakingChecksE = weak hidden local_unnamed_addr global ptr @_ZN4llvm24DisableABIBreakingChecksE, align 8
@.str = private unnamed_addr constant [11 x i8] c"deprecated\00", align 1

; Function Attrs: mustprogress nounwind uwtable
define dso_local noundef zeroext i1 @_ZNK4llvm11MCInstrInfo17getDeprecatedInfoERNS_6MCInstERKNS_15MCSubtargetInfoERNSt7__cxx1112basic_stringIcSt11char_traitsIcESaIcEEE(ptr nocapture noundef nonnull readonly align 8 dereferenceable(44) %0, ptr noundef nonnull align 8 dereferenceable(128) %1, ptr noundef nonnull align 8 dereferenceable(288) %2, ptr noundef nonnull align 8 dereferenceable(32) %3) local_unnamed_addr #0 align 2 {
  %5 = load i32, ptr %1, align 8
  %6 = getelementptr inbounds nuw i8, ptr %0, i64 32
  %7 = load ptr, ptr %6, align 8
  %.not = icmp eq ptr %7, null
  br i1 %.not, label %14, label %8

8:                                                ; preds = %4
  %9 = zext i32 %5 to i64
  %10 = getelementptr inbounds ptr, ptr %7, i64 %9
  %11 = load ptr, ptr %10, align 8
  %.not14 = icmp eq ptr %11, null
  br i1 %.not14, label %14, label %12

12:                                               ; preds = %8
  %13 = tail call noundef zeroext i1 %11(ptr noundef nonnull align 8 dereferenceable(128) %1, ptr noundef nonnull align 8 dereferenceable(288) %2, ptr noundef nonnull align 8 dereferenceable(32) %3) #2
  br label %34

14:                                               ; preds = %8, %4
  %15 = getelementptr inbounds nuw i8, ptr %0, i64 24
  %16 = load ptr, ptr %15, align 8
  %.not15 = icmp eq ptr %16, null
  br i1 %.not15, label %34, label %17

17:                                               ; preds = %14
  %18 = zext i32 %5 to i64
  %19 = getelementptr inbounds i8, ptr %16, i64 %18
  %20 = load i8, ptr %19, align 1
  %.not16 = icmp eq i8 %20, -1
  br i1 %.not16, label %34, label %21

21:                                               ; preds = %17
  %22 = getelementptr inbounds nuw i8, ptr %2, i64 216
  %23 = zext i8 %20 to i32
  %24 = and i32 %23, 63
  %25 = zext nneg i32 %24 to i64
  %26 = shl nuw i64 1, %25
  %27 = lshr i32 %23, 6
  %28 = zext nneg i32 %27 to i64
  %29 = getelementptr inbounds [5 x i64], ptr %22, i64 0, i64 %28
  %30 = load i64, ptr %29, align 8
  %31 = and i64 %30, %26
  %.not17 = icmp eq i64 %31, 0
  br i1 %.not17, label %34, label %32

32:                                               ; preds = %21
  %33 = tail call noundef nonnull align 8 dereferenceable(32) ptr @_ZNSt7__cxx1112basic_stringIcSt11char_traitsIcESaIcEEaSEPKc(ptr noundef nonnull align 8 dereferenceable(32) %3, ptr noundef nonnull @.str) #2
  br label %34

34:                                               ; preds = %14, %17, %21, %32, %12
  %.0 = phi i1 [ %13, %12 ], [ true, %32 ], [ false, %21 ], [ false, %17 ], [ false, %14 ]
  ret i1 %.0
}

declare noundef nonnull align 8 dereferenceable(32) ptr @_ZNSt7__cxx1112basic_stringIcSt11char_traitsIcESaIcEEaSEPKc(ptr noundef nonnull align 8 dereferenceable(32), ptr noundef) local_unnamed_addr #1


!llvm.module.flags = !{!0, !1, !2, !3}

!0 = !{i32 1, !"wchar_size", i32 4}
!1 = !{i32 8, !"PIC Level", i32 2}
!2 = !{i32 7, !"uwtable", i32 2}
!3 = !{i32 7, !"frame-pointer", i32 2}
